; Function Attrs: mustprogress nounwind uwtable
define hidden noundef ptr @_ZN12Dependencies25find_finalizable_subclassEP13InstanceKlass(ptr noundef %0) local_unnamed_addr #0 align 2 {
  %2 = alloca %class.ClassHierarchyIterator, align 8
  store ptr %0, ptr %2, align 8
  %3 = getelementptr inbounds i8, ptr %2, i64 8
  store ptr %0, ptr %3, align 8
  %4 = getelementptr inbounds i8, ptr %2, i64 16
  store i8 1, ptr %4, align 8
  %5 = icmp eq ptr %0, null
  br i1 %5, label %._crit_edge, label %.lr.ph

.lr.ph:                                           ; preds = %1, %10
  %6 = phi ptr [ %.pr, %10 ], [ %0, %1 ]
  %7 = getelementptr inbounds i8, ptr %6, i64 164
  %8 = load i32, ptr %7, align 4
  %9 = and i32 %8, 1073742336
  %or.cond.not = icmp eq i32 %9, 1073741824
  br i1 %or.cond.not, label %._crit_edge, label %10

10:                                               ; preds = %.lr.ph
  call void @_ZN22ClassHierarchyIterator4nextEv(ptr noundef nonnull align 8 dereferenceable(17) %2) #18
  %.pr = load ptr, ptr %3, align 8
  %11 = icmp eq ptr %.pr, null
  br i1 %11, label %._crit_edge, label %.lr.ph, !llvm.loop !55

._crit_edge:                                      ; preds = %10, %.lr.ph, %1
  %.lcssa = phi ptr [ null, %1 ], [ %6, %.lr.ph ], [ null, %10 ]
  ret ptr %.lcssa
}